(dp0
I443210169
(S'[color=#caa047]'
p1
S'ImperialPC'
p2
tp3
sI128494099
(S'[color=#1C85FF]'
p4
S'Oracle'
p5
tp6
sI417003236
(S'[color=#aaaaaa]'
p7
Vbabo
p8
tp9
sI389880533
(S'[color=#BD5866]'
p10
S'NiSs4n'
p11
tp12
sI106066030
(V[color=#00aa00]
p13
VBIade
p14
tp15
s.